target datalayout = "e-m:e-p270:32:32-p271:32:32-p272:64:64-i64:64-i128:128-f80:128-n8:16:32:64-S128"
target triple = "x86_64-pc-linux-gnu"

%struct.AVFilterContext = type { ptr, ptr, ptr, ptr, ptr, i32, ptr, ptr, i32, ptr, ptr, i32, i32, ptr, ptr, ptr, ptr, i32, ptr, i32, i32 }
%struct.ShowSpectrumContext = type { ptr, i32, i32, ptr, %struct.AVRational, %struct.AVRational, ptr, ptr, i32, i32, i32, i32, i32, i32, i32, i32, i32, float, float, i32, i32, i32, i32, ptr, ptr, ptr, ptr, i32, ptr, ptr, ptr, ptr, ptr, ptr, i32, i32, i32, double, float, float, i32, ptr, ptr, i64, i64, i64, i32, i32, i32, i32, i32, float, float, float, float, i64, ptr, i32, float, ptr, i32, i32 }
%struct.AVRational = type { i32, i32 }
%struct.AVComplexFloat = type { float, float }

; Function Attrs: nounwind uwtable
define internal i32 @calc_channel_phases(ptr noundef %0, ptr noundef %1, i32 noundef %2, i32 noundef %3) #1 {
  %5 = alloca ptr, align 8
  %6 = alloca ptr, align 8
  %7 = alloca i32, align 4
  %8 = alloca i32, align 4
  %9 = alloca ptr, align 8
  %10 = alloca i32, align 4
  %11 = alloca i32, align 4
  %12 = alloca ptr, align 8
  %13 = alloca i32, align 4
  store ptr %0, ptr %5, align 8, !tbaa !4
  store ptr %1, ptr %6, align 8, !tbaa !145
  store i32 %2, ptr %7, align 4, !tbaa !36
  store i32 %3, ptr %8, align 4, !tbaa !36
  call void @llvm.lifetime.start.p0(i64 8, ptr %9) #13
  %14 = load ptr, ptr %5, align 8, !tbaa !4
  %15 = getelementptr inbounds nuw %struct.AVFilterContext, ptr %14, i32 0, i32 9
  %16 = load ptr, ptr %15, align 8, !tbaa !9
  store ptr %16, ptr %9, align 8, !tbaa !22
  call void @llvm.lifetime.start.p0(i64 4, ptr %10) #13
  %17 = load ptr, ptr %9, align 8, !tbaa !22
  %18 = getelementptr inbounds nuw %struct.ShowSpectrumContext, ptr %17, i32 0, i32 9
  %19 = load i32, ptr %18, align 4, !tbaa !82
  %20 = icmp eq i32 %19, 0
  br i1 %20, label %21, label %25

21:                                               ; preds = %4
  %22 = load ptr, ptr %9, align 8, !tbaa !22
  %23 = getelementptr inbounds nuw %struct.ShowSpectrumContext, ptr %22, i32 0, i32 2
  %24 = load i32, ptr %23, align 4, !tbaa !111
  br label %29

25:                                               ; preds = %4
  %26 = load ptr, ptr %9, align 8, !tbaa !22
  %27 = getelementptr inbounds nuw %struct.ShowSpectrumContext, ptr %26, i32 0, i32 1
  %28 = load i32, ptr %27, align 8, !tbaa !110
  br label %29

29:                                               ; preds = %25, %21
  %30 = phi i32 [ %24, %21 ], [ %28, %25 ]
  store i32 %30, ptr %10, align 4, !tbaa !36
  call void @llvm.lifetime.start.p0(i64 4, ptr %11) #13
  %31 = load i32, ptr %7, align 4, !tbaa !36
  store i32 %31, ptr %11, align 4, !tbaa !36
  call void @llvm.lifetime.start.p0(i64 8, ptr %12) #13
  %32 = load ptr, ptr %9, align 8, !tbaa !22
  %33 = getelementptr inbounds nuw %struct.ShowSpectrumContext, ptr %32, i32 0, i32 33
  %34 = load ptr, ptr %33, align 8, !tbaa !52
  %35 = load i32, ptr %11, align 4, !tbaa !36
  %36 = sext i32 %35 to i64
  %37 = getelementptr inbounds ptr, ptr %34, i64 %36
  %38 = load ptr, ptr %37, align 8, !tbaa !128
  store ptr %38, ptr %12, align 8, !tbaa !128
  call void @llvm.lifetime.start.p0(i64 4, ptr %13) #13
  store i32 0, ptr %13, align 4, !tbaa !36
  br label %39

39:                                               ; preds = %78, %29
  %40 = load i32, ptr %13, align 4, !tbaa !36
  %41 = load i32, ptr %10, align 4, !tbaa !36
  %42 = icmp slt i32 %40, %41
  br i1 %42, label %43, label %81

43:                                               ; preds = %39
  %44 = load ptr, ptr %9, align 8, !tbaa !22
  %45 = getelementptr inbounds nuw %struct.ShowSpectrumContext, ptr %44, i32 0, i32 29
  %46 = load ptr, ptr %45, align 8, !tbaa !42
  %47 = load i32, ptr %11, align 4, !tbaa !36
  %48 = sext i32 %47 to i64
  %49 = getelementptr inbounds ptr, ptr %46, i64 %48
  %50 = load ptr, ptr %49, align 8, !tbaa !132
  %51 = load i32, ptr %13, align 4, !tbaa !36
  %52 = sext i32 %51 to i64
  %53 = getelementptr inbounds %struct.AVComplexFloat, ptr %50, i64 %52
  %54 = getelementptr inbounds nuw %struct.AVComplexFloat, ptr %53, i32 0, i32 1
  %55 = load float, ptr %54, align 4, !tbaa !224
  %56 = load ptr, ptr %9, align 8, !tbaa !22
  %57 = getelementptr inbounds nuw %struct.ShowSpectrumContext, ptr %56, i32 0, i32 29
  %58 = load ptr, ptr %57, align 8, !tbaa !42
  %59 = load i32, ptr %11, align 4, !tbaa !36
  %60 = sext i32 %59 to i64
  %61 = getelementptr inbounds ptr, ptr %58, i64 %60
  %62 = load ptr, ptr %61, align 8, !tbaa !132
  %63 = load i32, ptr %13, align 4, !tbaa !36
  %64 = sext i32 %63 to i64
  %65 = getelementptr inbounds %struct.AVComplexFloat, ptr %62, i64 %64
  %66 = getelementptr inbounds nuw %struct.AVComplexFloat, ptr %65, i32 0, i32 0
  %67 = load float, ptr %66, align 4, !tbaa !222
  %68 = call nsz float @llvm.atan2.f32(float %55, float %67)
  %69 = fpext nsz float %68 to double
  %70 = fdiv nsz double %69, 0x400921FB54442D18
  %71 = fadd nsz double %70, 1.000000e+00
  %72 = fdiv nsz double %71, 2.000000e+00
  %73 = fptrunc nsz double %72 to float
  %74 = load ptr, ptr %12, align 8, !tbaa !128
  %75 = load i32, ptr %13, align 4, !tbaa !36
  %76 = sext i32 %75 to i64
  %77 = getelementptr inbounds float, ptr %74, i64 %76
  store float %73, ptr %77, align 4, !tbaa !126
  br label %78

78:                                               ; preds = %43
  %79 = load i32, ptr %13, align 4, !tbaa !36
  %80 = add nsw i32 %79, 1
  store i32 %80, ptr %13, align 4, !tbaa !36
  br label %39, !llvm.loop !240

81:                                               ; preds = %39
  call void @llvm.lifetime.end.p0(i64 4, ptr %13) #13
  call void @llvm.lifetime.end.p0(i64 8, ptr %12) #13
  call void @llvm.lifetime.end.p0(i64 4, ptr %11) #13
  call void @llvm.lifetime.end.p0(i64 4, ptr %10) #13
  call void @llvm.lifetime.end.p0(i64 8, ptr %9) #13
  ret i32 0
}