; Function Attrs: nofree norecurse nosync nounwind memory(readwrite, inaccessiblemem: none) uwtable
define internal noundef i32 @calc_channel_phases(ptr noundef readonly captures(none) %0, ptr readnone captures(none) %1, i32 noundef %2, i32 %3) #12 {
  %5 = getelementptr inbounds nuw i8, ptr %0, i64 72
  %6 = load ptr, ptr %5, align 8, !tbaa !4
  %7 = getelementptr inbounds nuw i8, ptr %6, i64 60
  %8 = load i32, ptr %7, align 4, !tbaa !73
  %9 = icmp eq i32 %8, 0
  %.in.v = select i1 %9, i64 12, i64 8
  %.in = getelementptr inbounds nuw i8, ptr %6, i64 %.in.v
  %10 = load i32, ptr %.in, align 4, !tbaa !81
  %11 = getelementptr inbounds nuw i8, ptr %6, i64 200
  %12 = load ptr, ptr %11, align 8, !tbaa !47
  %13 = sext i32 %2 to i64
  %14 = getelementptr inbounds ptr, ptr %12, i64 %13
  %15 = load ptr, ptr %14, align 8, !tbaa !117
  %16 = icmp sgt i32 %10, 0
  br i1 %16, label %.lr.ph, label %._crit_edge

.lr.ph:                                           ; preds = %4
  %17 = getelementptr inbounds nuw i8, ptr %6, i64 168
  %18 = load ptr, ptr %17, align 8, !tbaa !37
  %19 = getelementptr inbounds ptr, ptr %18, i64 %13
  %20 = load ptr, ptr %19, align 8, !tbaa !121
  %wide.trip.count = zext nneg i32 %10 to i64
  br label %21

21:                                               ; preds = %.lr.ph, %21
  %indvars.iv = phi i64 [ 0, %.lr.ph ], [ %indvars.iv.next, %21 ]
  %22 = getelementptr inbounds nuw %struct.AVComplexFloat, ptr %20, i64 %indvars.iv
  %23 = getelementptr inbounds nuw i8, ptr %22, i64 4
  %24 = load float, ptr %23, align 4, !tbaa !209
  %25 = load float, ptr %22, align 4, !tbaa !207
  %26 = tail call nsz float @llvm.atan2.f32(float %24, float %25)
  %27 = fpext nsz float %26 to double
  %28 = fdiv nsz double %27, 0x400921FB54442D18
  %29 = fadd nsz double %28, 1.000000e+00
  %30 = fmul nsz double %29, 5.000000e-01
  %31 = fptrunc nsz double %30 to float
  %32 = getelementptr inbounds nuw float, ptr %15, i64 %indvars.iv
  store float %31, ptr %32, align 4, !tbaa !114
  %indvars.iv.next = add nuw nsw i64 %indvars.iv, 1
  %exitcond.not = icmp eq i64 %indvars.iv.next, %wide.trip.count
  br i1 %exitcond.not, label %._crit_edge, label %21, !llvm.loop !223

._crit_edge:                                      ; preds = %21, %4
  ret i32 0
}